target datalayout = "e-m:e-p270:32:32-p271:32:32-p272:64:64-i64:64-i128:128-f80:128-n8:16:32:64-S128"
target triple = "x86_64-pc-linux-gnu"

%struct.FunctionCallInfoBaseData = type { ptr, ptr, ptr, i32, i8, i16, [0 x %struct.NullableDatum] }
%struct.NullableDatum = type { i64, i8 }
%struct.GISTENTRY = type { i64, ptr, ptr, i16, i8 }
%struct.MultirangeType = type { i32, i32, i32 }
%struct.TypeCacheEntry = type { i32, i32, i16, i8, i8, i8, i8, i32, i32, i32, i32, i32, i32, i32, i32, i32, i32, i32, i32, i32, i32, %struct.FmgrInfo, %struct.FmgrInfo, %struct.FmgrInfo, %struct.FmgrInfo, ptr, i64, ptr, i32, i32, %struct.FmgrInfo, %struct.FmgrInfo, %struct.FmgrInfo, ptr, i32, i32, ptr, i32, ptr, ptr }
%struct.FmgrInfo = type { ptr, i32, i16, i8, i8, i8, ptr, ptr, ptr }

; Function Attrs: inlinehint nounwind uwtable
define internal i64 @PointerGetDatum(ptr noundef %0) #2 {
  %2 = alloca ptr, align 8
  store ptr %0, ptr %2, align 8
  %3 = load ptr, ptr %2, align 8
  %4 = ptrtoint ptr %3 to i64
  ret i64 %4
}

; Function Attrs: inlinehint nounwind uwtable
define internal i64 @RangeTypePGetDatum(ptr noundef %0) #2 {
  %2 = alloca ptr, align 8
  store ptr %0, ptr %2, align 8
  %3 = load ptr, ptr %2, align 8
  %4 = call i64 @PointerGetDatum(ptr noundef %3)
  ret i64 %4
}

; Function Attrs: inlinehint nounwind uwtable
define internal ptr @DatumGetMultirangeTypeP(i64 noundef %0) #2 {
  %2 = alloca i64, align 8
  store i64 %0, ptr %2, align 8
  %3 = load i64, ptr %2, align 8
  %4 = call ptr @DatumGetPointer(i64 noundef %3)
  %5 = call ptr @pg_detoast_datum(ptr noundef %4)
  ret ptr %5
}

; Function Attrs: inlinehint nounwind uwtable
define internal ptr @DatumGetPointer(i64 noundef %0) #2 {
  %2 = alloca i64, align 8
  store i64 %0, ptr %2, align 8
  %3 = load i64, ptr %2, align 8
  %4 = inttoptr i64 %3 to ptr
  ret ptr %4
}

; Function Attrs: nounwind uwtable
define dso_local i64 @multirange_gist_compress(ptr noundef %0) #0 {
  %2 = alloca i64, align 8
  %3 = alloca ptr, align 8
  %4 = alloca ptr, align 8
  %5 = alloca ptr, align 8
  %6 = alloca ptr, align 8
  %7 = alloca ptr, align 8
  %8 = alloca ptr, align 8
  %9 = alloca i32, align 4
  store ptr %0, ptr %3, align 8
  call void @llvm.lifetime.start.p0(i64 8, ptr %4) #8
  %10 = load ptr, ptr %3, align 8
  %11 = getelementptr inbounds nuw %struct.FunctionCallInfoBaseData, ptr %10, i32 0, i32 6
  %12 = getelementptr inbounds [0 x %struct.NullableDatum], ptr %11, i64 0, i64 0
  %13 = getelementptr inbounds nuw %struct.NullableDatum, ptr %12, i32 0, i32 0
  %14 = load i64, ptr %13, align 8
  %15 = call ptr @DatumGetPointer(i64 noundef %14)
  store ptr %15, ptr %4, align 8
  %16 = load ptr, ptr %4, align 8
  %17 = getelementptr inbounds nuw %struct.GISTENTRY, ptr %16, i32 0, i32 4
  %18 = load i8, ptr %17, align 2, !range !4, !noundef !5
  %19 = trunc i8 %18 to i1
  br i1 %19, label %20, label %62

20:                                               ; preds = %1
  call void @llvm.lifetime.start.p0(i64 8, ptr %5) #8
  %21 = load ptr, ptr %4, align 8
  %22 = getelementptr inbounds nuw %struct.GISTENTRY, ptr %21, i32 0, i32 0
  %23 = load i64, ptr %22, align 8
  %24 = call ptr @DatumGetMultirangeTypeP(i64 noundef %23)
  store ptr %24, ptr %5, align 8
  call void @llvm.lifetime.start.p0(i64 8, ptr %6) #8
  call void @llvm.lifetime.start.p0(i64 8, ptr %7) #8
  call void @llvm.lifetime.start.p0(i64 8, ptr %8) #8
  %25 = call ptr @palloc(i64 noundef 32)
  store ptr %25, ptr %8, align 8
  %26 = load ptr, ptr %3, align 8
  %27 = load ptr, ptr %5, align 8
  %28 = getelementptr inbounds nuw %struct.MultirangeType, ptr %27, i32 0, i32 1
  %29 = load i32, ptr %28, align 4
  %30 = call ptr @multirange_get_typcache(ptr noundef %26, i32 noundef %29)
  store ptr %30, ptr %7, align 8
  %31 = load ptr, ptr %7, align 8
  %32 = getelementptr inbounds nuw %struct.TypeCacheEntry, ptr %31, i32 0, i32 33
  %33 = load ptr, ptr %32, align 8
  %34 = load ptr, ptr %5, align 8
  %35 = call ptr @multirange_get_union_range(ptr noundef %33, ptr noundef %34)
  store ptr %35, ptr %6, align 8
  br label %36

36:                                               ; preds = %20
  %37 = load ptr, ptr %6, align 8
  %38 = call i64 @RangeTypePGetDatum(ptr noundef %37)
  %39 = load ptr, ptr %8, align 8
  %40 = getelementptr inbounds nuw %struct.GISTENTRY, ptr %39, i32 0, i32 0
  store i64 %38, ptr %40, align 8
  %41 = load ptr, ptr %4, align 8
  %42 = getelementptr inbounds nuw %struct.GISTENTRY, ptr %41, i32 0, i32 1
  %43 = load ptr, ptr %42, align 8
  %44 = load ptr, ptr %8, align 8
  %45 = getelementptr inbounds nuw %struct.GISTENTRY, ptr %44, i32 0, i32 1
  store ptr %43, ptr %45, align 8
  %46 = load ptr, ptr %4, align 8
  %47 = getelementptr inbounds nuw %struct.GISTENTRY, ptr %46, i32 0, i32 2
  %48 = load ptr, ptr %47, align 8
  %49 = load ptr, ptr %8, align 8
  %50 = getelementptr inbounds nuw %struct.GISTENTRY, ptr %49, i32 0, i32 2
  store ptr %48, ptr %50, align 8
  %51 = load ptr, ptr %4, align 8
  %52 = getelementptr inbounds nuw %struct.GISTENTRY, ptr %51, i32 0, i32 3
  %53 = load i16, ptr %52, align 8
  %54 = load ptr, ptr %8, align 8
  %55 = getelementptr inbounds nuw %struct.GISTENTRY, ptr %54, i32 0, i32 3
  store i16 %53, ptr %55, align 8
  %56 = load ptr, ptr %8, align 8
  %57 = getelementptr inbounds nuw %struct.GISTENTRY, ptr %56, i32 0, i32 4
  store i8 0, ptr %57, align 2
  br label %58

58:                                               ; preds = %36
  br label %59

59:                                               ; preds = %58
  %60 = load ptr, ptr %8, align 8
  %61 = call i64 @PointerGetDatum(ptr noundef %60)
  store i64 %61, ptr %2, align 8
  store i32 1, ptr %9, align 4
  call void @llvm.lifetime.end.p0(i64 8, ptr %8) #8
  call void @llvm.lifetime.end.p0(i64 8, ptr %7) #8
  call void @llvm.lifetime.end.p0(i64 8, ptr %6) #8
  call void @llvm.lifetime.end.p0(i64 8, ptr %5) #8
  br label %65

62:                                               ; preds = %1
  %63 = load ptr, ptr %4, align 8
  %64 = call i64 @PointerGetDatum(ptr noundef %63)
  store i64 %64, ptr %2, align 8
  store i32 1, ptr %9, align 4
  br label %65

65:                                               ; preds = %62, %59
  call void @llvm.lifetime.end.p0(i64 8, ptr %4) #8
  %66 = load i64, ptr %2, align 8
  ret i64 %66
}