; Function Attrs: nounwind uwtable
define dso_local i64 @multirange_gist_compress(ptr noundef %0) local_unnamed_addr #0 {
  %2 = getelementptr inbounds nuw i8, ptr %0, i64 32
  %3 = load i64, ptr %2, align 8
  %4 = inttoptr i64 %3 to ptr
  %5 = getelementptr inbounds nuw i8, ptr %4, i64 26
  %6 = load i8, ptr %5, align 2, !range !4, !noundef !5
  %7 = trunc nuw i8 %6 to i1
  br i1 %7, label %8, label %31

8:                                                ; preds = %1
  %9 = load i64, ptr %4, align 8
  %10 = inttoptr i64 %9 to ptr
  %11 = tail call ptr @pg_detoast_datum(ptr noundef %10) #10
  %12 = tail call ptr @palloc(i64 noundef 32) #10
  %13 = getelementptr inbounds nuw i8, ptr %11, i64 4
  %14 = load i32, ptr %13, align 4
  %15 = tail call ptr @multirange_get_typcache(ptr noundef nonnull %0, i32 noundef %14) #10
  %16 = getelementptr inbounds nuw i8, ptr %15, i64 440
  %17 = load ptr, ptr %16, align 8
  %18 = tail call ptr @multirange_get_union_range(ptr noundef %17, ptr noundef %11) #10
  %19 = ptrtoint ptr %18 to i64
  store i64 %19, ptr %12, align 8
  %20 = getelementptr inbounds nuw i8, ptr %4, i64 8
  %21 = load ptr, ptr %20, align 8
  %22 = getelementptr inbounds nuw i8, ptr %12, i64 8
  store ptr %21, ptr %22, align 8
  %23 = getelementptr inbounds nuw i8, ptr %4, i64 16
  %24 = load ptr, ptr %23, align 8
  %25 = getelementptr inbounds nuw i8, ptr %12, i64 16
  store ptr %24, ptr %25, align 8
  %26 = getelementptr inbounds nuw i8, ptr %4, i64 24
  %27 = load i16, ptr %26, align 8
  %28 = getelementptr inbounds nuw i8, ptr %12, i64 24
  store i16 %27, ptr %28, align 8
  %29 = getelementptr inbounds nuw i8, ptr %12, i64 26
  store i8 0, ptr %29, align 2
  %30 = ptrtoint ptr %12 to i64
  br label %31

31:                                               ; preds = %1, %8
  %.0 = phi i64 [ %30, %8 ], [ %3, %1 ]
  ret i64 %.0
}